#include <math.h>
#include <stdio.h>
#include <stdlib.h>
#include <string.h>

main()
{
  int n,t,i,Y;
  scanf("%d",&n);
  int s[n];
  for(i=0;i<=(n-1);i++)
  {
    scanf("%d",&t);
    s[i]=t;
  }
  for(i=0;i<=(n-1);i++)
  {
    int a=1,b=1,c=1;
    for(Y=3;Y<=s[i];Y++)
    {
    c=a+b;
    a=b;
    b=c;
    }
    printf("%d\n",c);
  } 
  getchar();
  getchar();
  getchar();
  getchar();
} 