; ModuleID = '61/318.c'
source_filename = "61/318.c"
target datalayout = "e-m:e-p270:32:32-p271:32:32-p272:64:64-i64:64-f80:128-n8:16:32:64-S128"
target triple = "x86_64-pc-linux-gnu"

@.str = private unnamed_addr constant [3 x i8] c"%d\00", align 1
@.str.1 = private unnamed_addr constant [4 x i8] c"%d\0A\00", align 1

; Function Attrs: noinline nounwind uwtable
define dso_local i32 @main() #0 {
  %1 = alloca i32, align 4
  %2 = alloca i32, align 4
  %3 = alloca i32, align 4
  %4 = alloca i32, align 4
  %5 = alloca i32, align 4
  %6 = alloca i8*, align 8
  %7 = alloca i64, align 8
  %8 = alloca i32, align 4
  %9 = alloca i32, align 4
  %10 = alloca i32, align 4
  store i32 0, i32* %1, align 4
  %11 = call i32 (i8*, ...) @__isoc99_scanf(i8* getelementptr inbounds ([3 x i8], [3 x i8]* @.str, i64 0, i64 0), i32* %2)
  %12 = load i32, i32* %2, align 4
  %13 = zext i32 %12 to i64
  %14 = call i8* @llvm.stacksave()
  store i8* %14, i8** %6, align 8
  %15 = alloca i32, i64 %13, align 16
  store i64 %13, i64* %7, align 8
  store i32 0, i32* %4, align 4
  br label %16

16:                                               ; preds = %27, %0
  %17 = load i32, i32* %4, align 4
  %18 = load i32, i32* %2, align 4
  %19 = sub nsw i32 %18, 1
  %20 = icmp sle i32 %17, %19
  br i1 %20, label %21, label %30

21:                                               ; preds = %16
  %22 = call i32 (i8*, ...) @__isoc99_scanf(i8* getelementptr inbounds ([3 x i8], [3 x i8]* @.str, i64 0, i64 0), i32* %3)
  %23 = load i32, i32* %3, align 4
  %24 = load i32, i32* %4, align 4
  %25 = sext i32 %24 to i64
  %26 = getelementptr inbounds i32, i32* %15, i64 %25
  store i32 %23, i32* %26, align 4
  br label %27

27:                                               ; preds = %21
  %28 = load i32, i32* %4, align 4
  %29 = add nsw i32 %28, 1
  store i32 %29, i32* %4, align 4
  br label %16

30:                                               ; preds = %16
  store i32 0, i32* %4, align 4
  br label %31

31:                                               ; preds = %56, %30
  %32 = load i32, i32* %4, align 4
  %33 = load i32, i32* %2, align 4
  %34 = sub nsw i32 %33, 1
  %35 = icmp sle i32 %32, %34
  br i1 %35, label %36, label %59

36:                                               ; preds = %31
  store i32 1, i32* %8, align 4
  store i32 1, i32* %9, align 4
  store i32 1, i32* %10, align 4
  store i32 3, i32* %5, align 4
  br label %37

37:                                               ; preds = %50, %36
  %38 = load i32, i32* %5, align 4
  %39 = load i32, i32* %4, align 4
  %40 = sext i32 %39 to i64
  %41 = getelementptr inbounds i32, i32* %15, i64 %40
  %42 = load i32, i32* %41, align 4
  %43 = icmp sle i32 %38, %42
  br i1 %43, label %44, label %53

44:                                               ; preds = %37
  %45 = load i32, i32* %8, align 4
  %46 = load i32, i32* %9, align 4
  %47 = add nsw i32 %45, %46
  store i32 %47, i32* %10, align 4
  %48 = load i32, i32* %9, align 4
  store i32 %48, i32* %8, align 4
  %49 = load i32, i32* %10, align 4
  store i32 %49, i32* %9, align 4
  br label %50

50:                                               ; preds = %44
  %51 = load i32, i32* %5, align 4
  %52 = add nsw i32 %51, 1
  store i32 %52, i32* %5, align 4
  br label %37

53:                                               ; preds = %37
  %54 = load i32, i32* %10, align 4
  %55 = call i32 (i8*, ...) @printf(i8* getelementptr inbounds ([4 x i8], [4 x i8]* @.str.1, i64 0, i64 0), i32 %54)
  br label %56

56:                                               ; preds = %53
  %57 = load i32, i32* %4, align 4
  %58 = add nsw i32 %57, 1
  store i32 %58, i32* %4, align 4
  br label %31

59:                                               ; preds = %31
  %60 = call i32 @getchar()
  %61 = call i32 @getchar()
  %62 = call i32 @getchar()
  %63 = call i32 @getchar()
  %64 = load i8*, i8** %6, align 8
  call void @llvm.stackrestore(i8* %64)
  %65 = load i32, i32* %1, align 4
  ret i32 %65
}

declare dso_local i32 @__isoc99_scanf(i8*, ...) #1

; Function Attrs: nounwind
declare i8* @llvm.stacksave() #2

declare dso_local i32 @printf(i8*, ...) #1

declare dso_local i32 @getchar() #1

; Function Attrs: nounwind
declare void @llvm.stackrestore(i8*) #2


!llvm.module.flags = !{!0}
!llvm.ident = !{!1}

!0 = !{i32 1, !"wchar_size", i32 4}
!1 = !{!"clang version 10.0.0-4ubuntu1 "}
