; ModuleID = 'source-C-CXX/60/318.c'
source_filename = "source-C-CXX/60/318.c"
target datalayout = "e-m:e-p270:32:32-p271:32:32-p272:64:64-i64:64-f80:128-n8:16:32:64-S128"
target triple = "x86_64-pc-linux-gnu"

%struct._IO_FILE = type { i32, i8*, i8*, i8*, i8*, i8*, i8*, i8*, i8*, i8*, i8*, i8*, %struct._IO_marker*, %struct._IO_FILE*, i32, i32, i64, i16, i8, [1 x i8], i8*, i64, %struct._IO_codecvt*, %struct._IO_wide_data*, %struct._IO_FILE*, i8*, i64, i32, [20 x i8] }
%struct._IO_marker = type opaque
%struct._IO_codecvt = type opaque
%struct._IO_wide_data = type opaque

@.str = private unnamed_addr constant [3 x i8] c"%d\00", align 1
@.str.1 = private unnamed_addr constant [4 x i8] c"%d\0A\00", align 1
@stdin = external local_unnamed_addr global %struct._IO_FILE*, align 8

; Function Attrs: nofree nounwind sspstrong uwtable
define dso_local i32 @main() local_unnamed_addr #0 {
  %1 = alloca i32, align 4
  %2 = alloca i32, align 4
  %3 = bitcast i32* %1 to i8*
  call void @llvm.lifetime.start.p0i8(i64 4, i8* nonnull %3) #4
  %4 = bitcast i32* %2 to i8*
  call void @llvm.lifetime.start.p0i8(i64 4, i8* nonnull %4) #4
  %5 = call i32 (i8*, ...) @__isoc99_scanf(i8* getelementptr inbounds ([3 x i8], [3 x i8]* @.str, i64 0, i64 0), i32* nonnull %1)
  %6 = load i32, i32* %1, align 4, !tbaa !5
  %7 = zext i32 %6 to i64
  %8 = call i8* @llvm.stacksave()
  %9 = alloca i32, i64 %7, align 16
  %10 = load i32, i32* %1, align 4, !tbaa !5
  %11 = icmp sgt i32 %10, 0
  br i1 %11, label %14, label %68

12:                                               ; preds = %14
  %13 = icmp sgt i32 %20, 0
  br i1 %13, label %23, label %68

14:                                               ; preds = %0, %14
  %15 = phi i64 [ %19, %14 ], [ 0, %0 ]
  %16 = call i32 (i8*, ...) @__isoc99_scanf(i8* getelementptr inbounds ([3 x i8], [3 x i8]* @.str, i64 0, i64 0), i32* nonnull %2)
  %17 = load i32, i32* %2, align 4, !tbaa !5
  %18 = getelementptr inbounds i32, i32* %9, i64 %15
  store i32 %17, i32* %18, align 4, !tbaa !5
  %19 = add nuw nsw i64 %15, 1
  %20 = load i32, i32* %1, align 4, !tbaa !5
  %21 = sext i32 %20 to i64
  %22 = icmp slt i64 %19, %21
  br i1 %22, label %14, label %12, !llvm.loop !9

23:                                               ; preds = %12, %61
  %24 = phi i64 [ %64, %61 ], [ 0, %12 ]
  %25 = getelementptr inbounds i32, i32* %9, i64 %24
  %26 = load i32, i32* %25, align 4, !tbaa !5
  %27 = icmp slt i32 %26, 3
  br i1 %27, label %61, label %28

28:                                               ; preds = %23
  %29 = add i32 %26, -2
  %30 = add i32 %26, -3
  %31 = and i32 %29, 7
  %32 = icmp ult i32 %30, 7
  br i1 %32, label %49, label %33

33:                                               ; preds = %28
  %34 = and i32 %29, -8
  br label %35

35:                                               ; preds = %35, %33
  %36 = phi i32 [ 1, %33 ], [ %46, %35 ]
  %37 = phi i32 [ 1, %33 ], [ %45, %35 ]
  %38 = phi i32 [ %34, %33 ], [ %47, %35 ]
  %39 = add nsw i32 %36, %37
  %40 = add nsw i32 %39, %36
  %41 = add nsw i32 %40, %39
  %42 = add nsw i32 %41, %40
  %43 = add nsw i32 %42, %41
  %44 = add nsw i32 %43, %42
  %45 = add nsw i32 %44, %43
  %46 = add nsw i32 %45, %44
  %47 = add i32 %38, -8
  %48 = icmp eq i32 %47, 0
  br i1 %48, label %49, label %35, !llvm.loop !11

49:                                               ; preds = %35, %28
  %50 = phi i32 [ undef, %28 ], [ %46, %35 ]
  %51 = phi i32 [ 1, %28 ], [ %46, %35 ]
  %52 = phi i32 [ 1, %28 ], [ %45, %35 ]
  %53 = icmp eq i32 %31, 0
  br i1 %53, label %61, label %54

54:                                               ; preds = %49, %54
  %55 = phi i32 [ %58, %54 ], [ %51, %49 ]
  %56 = phi i32 [ %55, %54 ], [ %52, %49 ]
  %57 = phi i32 [ %59, %54 ], [ %31, %49 ]
  %58 = add nsw i32 %55, %56
  %59 = add i32 %57, -1
  %60 = icmp eq i32 %59, 0
  br i1 %60, label %61, label %54, !llvm.loop !12

61:                                               ; preds = %49, %54, %23
  %62 = phi i32 [ 1, %23 ], [ %50, %49 ], [ %58, %54 ]
  %63 = call i32 (i8*, ...) @printf(i8* nonnull dereferenceable(1) getelementptr inbounds ([4 x i8], [4 x i8]* @.str.1, i64 0, i64 0), i32 %62)
  %64 = add nuw nsw i64 %24, 1
  %65 = load i32, i32* %1, align 4, !tbaa !5
  %66 = sext i32 %65 to i64
  %67 = icmp slt i64 %64, %66
  br i1 %67, label %23, label %68, !llvm.loop !14

68:                                               ; preds = %61, %0, %12
  %69 = load %struct._IO_FILE*, %struct._IO_FILE** @stdin, align 8, !tbaa !15
  %70 = call i32 @getc(%struct._IO_FILE* %69) #4
  %71 = load %struct._IO_FILE*, %struct._IO_FILE** @stdin, align 8, !tbaa !15
  %72 = call i32 @getc(%struct._IO_FILE* %71) #4
  %73 = load %struct._IO_FILE*, %struct._IO_FILE** @stdin, align 8, !tbaa !15
  %74 = call i32 @getc(%struct._IO_FILE* %73) #4
  %75 = load %struct._IO_FILE*, %struct._IO_FILE** @stdin, align 8, !tbaa !15
  %76 = call i32 @getc(%struct._IO_FILE* %75) #4
  call void @llvm.stackrestore(i8* %8)
  call void @llvm.lifetime.end.p0i8(i64 4, i8* nonnull %4) #4
  call void @llvm.lifetime.end.p0i8(i64 4, i8* nonnull %3) #4
  ret i32 0
}

; Function Attrs: argmemonly mustprogress nofree nosync nounwind willreturn
declare void @llvm.lifetime.start.p0i8(i64 immarg, i8* nocapture) #1

; Function Attrs: nofree nounwind
declare noundef i32 @__isoc99_scanf(i8* nocapture noundef readonly, ...) local_unnamed_addr #2

; Function Attrs: mustprogress nofree nosync nounwind willreturn
declare i8* @llvm.stacksave() #3

; Function Attrs: nofree nounwind
declare noundef i32 @printf(i8* nocapture noundef readonly, ...) local_unnamed_addr #2

; Function Attrs: argmemonly mustprogress nofree nosync nounwind willreturn
declare void @llvm.lifetime.end.p0i8(i64 immarg, i8* nocapture) #1

; Function Attrs: mustprogress nofree nosync nounwind willreturn
declare void @llvm.stackrestore(i8*) #3

; Function Attrs: nofree nounwind
declare noundef i32 @getc(%struct._IO_FILE* nocapture noundef) local_unnamed_addr #2


!llvm.module.flags = !{!0, !1, !2, !3}
!llvm.ident = !{!4}

!0 = !{i32 1, !"wchar_size", i32 4}
!1 = !{i32 7, !"PIC Level", i32 2}
!2 = !{i32 7, !"PIE Level", i32 2}
!3 = !{i32 7, !"uwtable", i32 1}
!4 = !{!"clang version 13.0.0"}
!5 = !{!6, !6, i64 0}
!6 = !{!"int", !7, i64 0}
!7 = !{!"omnipotent char", !8, i64 0}
!8 = !{!"Simple C/C++ TBAA"}
!9 = distinct !{!9, !10}
!10 = !{!"llvm.loop.mustprogress"}
!11 = distinct !{!11, !10}
!12 = distinct !{!12, !13}
!13 = !{!"llvm.loop.unroll.disable"}
!14 = distinct !{!14, !10}
!15 = !{!16, !16, i64 0}
!16 = !{!"any pointer", !7, i64 0}
